target datalayout = "e-m:e-p270:32:32-p271:32:32-p272:64:64-i64:64-i128:128-f80:128-n8:16:32:64-S128"
target triple = "x86_64-pc-linux-gnu"

%struct.expert_field = type { i32, i32 }
%struct._packet_info = type { ptr, ptr, i32, i32, %struct.nstime_t, %struct.nstime_t, %struct.nstime_t, i8, ptr, ptr, ptr, ptr, %struct._address, %struct._address, %struct._address, %struct._address, %struct._address, %struct._address, i32, ptr, i8, [3 x i8], %struct.anon, i32, i32, i32, i32, ptr, i8, ptr, ptr, i16, i16, i32, i32, i16, i32, i32, ptr, ptr, ptr, i8, i8, i16, i16, i16, i32, i16, i16, ptr, ptr, ptr, ptr, ptr, i32, i32 }
%struct.nstime_t = type { i64, i32 }
%struct._address = type { i32, i32, ptr, ptr }
%struct.anon = type { i8, [3 x i8] }
%struct.e_in6_addr = type { [16 x i8] }

@ei_bgp_length_invalid = internal global %struct.expert_field zeroinitializer, align 4
@hf_bgp_prefix_length = internal global i32 0, align 4
@ett_bgp_prefix = internal global i32 0, align 4
@.str.1834 = private unnamed_addr constant [6 x i8] c"%s/%u\00", align 1
@.str.1846 = private unnamed_addr constant [21 x i8] c"%s prefix length: %u\00", align 1
@.str.1887 = private unnamed_addr constant [21 x i8] c"%s length %u invalid\00", align 1

; Function Attrs: inlinehint nounwind null_pointer_is_valid sspstrong uwtable
define internal void @set_address(ptr noundef %0, i32 noundef %1, i32 noundef %2, ptr noundef %3) #4 {
  %5 = alloca ptr, align 8
  %6 = alloca i32, align 4
  %7 = alloca i32, align 4
  %8 = alloca ptr, align 8
  store ptr %0, ptr %5, align 8
  store i32 %1, ptr %6, align 4
  store i32 %2, ptr %7, align 4
  store ptr %3, ptr %8, align 8
  %9 = load i32, ptr %7, align 4
  %10 = icmp eq i32 %9, 0
  br i1 %10, label %11, label %14

11:                                               ; preds = %4
  br label %12

12:                                               ; preds = %11
  br label %13

13:                                               ; preds = %12
  br label %19

14:                                               ; preds = %4
  br label %15

15:                                               ; preds = %14
  br label %16

16:                                               ; preds = %15
  br label %17

17:                                               ; preds = %16
  br label %18

18:                                               ; preds = %17
  br label %19

19:                                               ; preds = %18, %13
  %20 = load i32, ptr %6, align 4
  %21 = load ptr, ptr %5, align 8
  %22 = getelementptr inbounds nuw %struct._address, ptr %21, i32 0, i32 0
  store i32 %20, ptr %22, align 8
  %23 = load i32, ptr %7, align 4
  %24 = load ptr, ptr %5, align 8
  %25 = getelementptr inbounds nuw %struct._address, ptr %24, i32 0, i32 1
  store i32 %23, ptr %25, align 4
  %26 = load ptr, ptr %8, align 8
  %27 = load ptr, ptr %5, align 8
  %28 = getelementptr inbounds nuw %struct._address, ptr %27, i32 0, i32 2
  store ptr %26, ptr %28, align 8
  %29 = load ptr, ptr %5, align 8
  %30 = getelementptr inbounds nuw %struct._address, ptr %29, i32 0, i32 3
  store ptr null, ptr %30, align 8
  ret void
}

; Function Attrs: null_pointer_is_valid sspstrong uwtable
define internal i32 @decode_prefix6(ptr noundef %0, ptr noundef %1, i32 noundef %2, ptr noundef %3, i32 noundef %4, i16 noundef zeroext %5, ptr noundef %6) #0 {
  %8 = alloca i32, align 4
  %9 = alloca ptr, align 8
  %10 = alloca ptr, align 8
  %11 = alloca i32, align 4
  %12 = alloca ptr, align 8
  %13 = alloca i32, align 4
  %14 = alloca i16, align 2
  %15 = alloca ptr, align 8
  %16 = alloca ptr, align 8
  %17 = alloca %struct.e_in6_addr, align 1
  %18 = alloca %struct._address, align 8
  %19 = alloca i32, align 4
  %20 = alloca i32, align 4
  %21 = alloca i32, align 4
  store ptr %0, ptr %9, align 8
  store ptr %1, ptr %10, align 8
  store i32 %2, ptr %11, align 4
  store ptr %3, ptr %12, align 8
  store i32 %4, ptr %13, align 4
  store i16 %5, ptr %14, align 2
  store ptr %6, ptr %15, align 8
  call void @llvm.lifetime.start.p0(i64 8, ptr %16) #6
  call void @llvm.lifetime.start.p0(i64 16, ptr %17) #6
  call void @llvm.lifetime.start.p0(i64 24, ptr %18) #6
  call void @llvm.lifetime.start.p0(i64 4, ptr %19) #6
  call void @llvm.lifetime.start.p0(i64 4, ptr %20) #6
  %22 = load ptr, ptr %12, align 8
  %23 = load i32, ptr %13, align 4
  %24 = call zeroext i8 @tvb_get_uint8(ptr noundef %22, i32 noundef %23)
  %25 = zext i8 %24 to i32
  store i32 %25, ptr %19, align 4
  %26 = load ptr, ptr %12, align 8
  %27 = load i32, ptr %13, align 4
  %28 = add i32 %27, 1
  %29 = load i32, ptr %19, align 4
  %30 = call i32 @tvb_get_ipv6_addr_with_prefix_len(ptr noundef %26, i32 noundef %28, ptr noundef %17, i32 noundef %29)
  store i32 %30, ptr %20, align 4
  %31 = load i32, ptr %20, align 4
  %32 = icmp slt i32 %31, 0
  br i1 %32, label %33, label %41

33:                                               ; preds = %7
  %34 = load ptr, ptr %9, align 8
  %35 = load ptr, ptr %10, align 8
  %36 = load ptr, ptr %12, align 8
  %37 = load i32, ptr %13, align 4
  %38 = load ptr, ptr %15, align 8
  %39 = load i32, ptr %19, align 4
  %40 = call ptr (ptr, ptr, ptr, ptr, i32, i32, ptr, ...) @proto_tree_add_expert_format(ptr noundef %34, ptr noundef %35, ptr noundef @ei_bgp_length_invalid, ptr noundef %36, i32 noundef %37, i32 noundef 1, ptr noundef @.str.1887, ptr noundef %38, i32 noundef %39)
  store i32 -1, ptr %8, align 4
  store i32 1, ptr %21, align 4
  br label %82

41:                                               ; preds = %7
  %42 = getelementptr inbounds nuw %struct.e_in6_addr, ptr %17, i32 0, i32 0
  %43 = getelementptr inbounds [16 x i8], ptr %42, i64 0, i64 0
  call void @set_address(ptr noundef %18, i32 noundef 3, i32 noundef 16, ptr noundef %43)
  %44 = load ptr, ptr %9, align 8
  %45 = load ptr, ptr %12, align 8
  %46 = load i32, ptr %13, align 4
  %47 = load i16, ptr %14, align 2
  %48 = zext i16 %47 to i32
  %49 = icmp ne i32 %48, 0
  br i1 %49, label %50, label %53

50:                                               ; preds = %41
  %51 = load i16, ptr %14, align 2
  %52 = zext i16 %51 to i32
  br label %56

53:                                               ; preds = %41
  %54 = load i32, ptr %20, align 4
  %55 = add i32 1, %54
  br label %56

56:                                               ; preds = %53, %50
  %57 = phi i32 [ %52, %50 ], [ %55, %53 ]
  %58 = load i32, ptr @ett_bgp_prefix, align 4
  %59 = load ptr, ptr %10, align 8
  %60 = getelementptr inbounds nuw %struct._packet_info, ptr %59, i32 0, i32 51
  %61 = load ptr, ptr %60, align 8
  %62 = call ptr @address_to_str(ptr noundef %61, ptr noundef %18)
  %63 = load i32, ptr %19, align 4
  %64 = call ptr (ptr, ptr, i32, i32, i32, ptr, ptr, ...) @proto_tree_add_subtree_format(ptr noundef %44, ptr noundef %45, i32 noundef %46, i32 noundef %57, i32 noundef %58, ptr noundef null, ptr noundef @.str.1834, ptr noundef %62, i32 noundef %63)
  store ptr %64, ptr %16, align 8
  %65 = load ptr, ptr %16, align 8
  %66 = load i32, ptr @hf_bgp_prefix_length, align 4
  %67 = load ptr, ptr %12, align 8
  %68 = load i32, ptr %13, align 4
  %69 = load i32, ptr %19, align 4
  %70 = load ptr, ptr %15, align 8
  %71 = load i32, ptr %19, align 4
  %72 = call ptr (ptr, i32, ptr, i32, i32, i32, ptr, ...) @proto_tree_add_uint_format(ptr noundef %65, i32 noundef %66, ptr noundef %67, i32 noundef %68, i32 noundef 1, i32 noundef %69, ptr noundef @.str.1846, ptr noundef %70, i32 noundef %71)
  %73 = load ptr, ptr %16, align 8
  %74 = load i32, ptr %11, align 4
  %75 = load ptr, ptr %12, align 8
  %76 = load i32, ptr %13, align 4
  %77 = add i32 %76, 1
  %78 = load i32, ptr %20, align 4
  %79 = call ptr @proto_tree_add_ipv6(ptr noundef %73, i32 noundef %74, ptr noundef %75, i32 noundef %77, i32 noundef %78, ptr noundef %17)
  %80 = load i32, ptr %20, align 4
  %81 = add i32 1, %80
  store i32 %81, ptr %8, align 4
  store i32 1, ptr %21, align 4
  br label %82

82:                                               ; preds = %56, %33
  call void @llvm.lifetime.end.p0(i64 4, ptr %20) #6
  call void @llvm.lifetime.end.p0(i64 4, ptr %19) #6
  call void @llvm.lifetime.end.p0(i64 24, ptr %18) #6
  call void @llvm.lifetime.end.p0(i64 16, ptr %17) #6
  call void @llvm.lifetime.end.p0(i64 8, ptr %16) #6
  %83 = load i32, ptr %8, align 4
  ret i32 %83
}