; Function Attrs: null_pointer_is_valid sspstrong uwtable
define internal fastcc range(i32 -1, -2147483647) i32 @decode_prefix6(ptr noundef %0, ptr noundef %1, i32 noundef %2, ptr noundef %3, i32 noundef %4, ptr noundef %5) unnamed_addr #0 {
  %7 = alloca %struct.e_in6_addr, align 1
  %8 = alloca %struct._address, align 8
  call void @llvm.lifetime.start.p0(i64 16, ptr nonnull %7) #5
  call void @llvm.lifetime.start.p0(i64 24, ptr nonnull %8) #5
  %9 = tail call zeroext i8 @tvb_get_uint8(ptr noundef %3, i32 noundef %4)
  %10 = zext i8 %9 to i32
  %11 = add i32 %4, 1
  %12 = call i32 @tvb_get_ipv6_addr_with_prefix_len(ptr noundef %3, i32 noundef %11, ptr noundef nonnull %7, i32 noundef %10)
  %13 = icmp slt i32 %12, 0
  br i1 %13, label %14, label %16

14:                                               ; preds = %6
  %15 = call ptr (ptr, ptr, ptr, ptr, i32, i32, ptr, ...) @proto_tree_add_expert_format(ptr noundef %0, ptr noundef %1, ptr noundef nonnull @ei_bgp_length_invalid, ptr noundef %3, i32 noundef %4, i32 noundef 1, ptr noundef nonnull @.str.1887, ptr noundef %5, i32 noundef %10)
  br label %29

16:                                               ; preds = %6
  store i32 3, ptr %8, align 8
  %17 = getelementptr inbounds nuw i8, ptr %8, i64 4
  store i32 16, ptr %17, align 4
  %18 = getelementptr inbounds nuw i8, ptr %8, i64 8
  store ptr %7, ptr %18, align 8
  %19 = getelementptr inbounds nuw i8, ptr %8, i64 16
  store ptr null, ptr %19, align 8
  %20 = add nuw i32 %12, 1
  %21 = load i32, ptr @ett_bgp_prefix, align 4
  %22 = getelementptr inbounds nuw i8, ptr %1, i64 408
  %23 = load ptr, ptr %22, align 8
  %24 = call ptr @address_to_str(ptr noundef %23, ptr noundef nonnull %8)
  %25 = call ptr (ptr, ptr, i32, i32, i32, ptr, ptr, ...) @proto_tree_add_subtree_format(ptr noundef %0, ptr noundef %3, i32 noundef %4, i32 noundef %20, i32 noundef %21, ptr noundef null, ptr noundef nonnull @.str.1834, ptr noundef %24, i32 noundef %10)
  %26 = load i32, ptr @hf_bgp_prefix_length, align 4
  %27 = call ptr (ptr, i32, ptr, i32, i32, i32, ptr, ...) @proto_tree_add_uint_format(ptr noundef %25, i32 noundef %26, ptr noundef %3, i32 noundef %4, i32 noundef 1, i32 noundef %10, ptr noundef nonnull @.str.1846, ptr noundef %5, i32 noundef %10)
  %28 = call ptr @proto_tree_add_ipv6(ptr noundef %25, i32 noundef %2, ptr noundef %3, i32 noundef %11, i32 noundef %12, ptr noundef nonnull %7)
  br label %29

29:                                               ; preds = %16, %14
  %.0 = phi i32 [ -1, %14 ], [ %20, %16 ]
  call void @llvm.lifetime.end.p0(i64 24, ptr nonnull %8) #5
  call void @llvm.lifetime.end.p0(i64 16, ptr nonnull %7) #5
  ret i32 %.0
}